; Function Attrs: mustprogress uwtable
define hidden void @_ZN7datalog12mk_bit_blastC2ERNS_7contextEj(ptr noundef nonnull writeonly align 8 captures(none) dereferenceable(32) initializes((0, 13), (16, 32)) %0, ptr noundef nonnull align 8 dereferenceable(3028) %1, i32 noundef %2) unnamed_addr #3 align 2 personality ptr @__gxx_personality_v0 {
  %4 = getelementptr inbounds nuw i8, ptr %0, i64 8
  store i32 %2, ptr %4, align 8, !tbaa !3
  %5 = getelementptr inbounds nuw i8, ptr %0, i64 12
  store i8 0, ptr %5, align 4, !tbaa !11
  %6 = getelementptr inbounds nuw i8, ptr %0, i64 16
  store ptr null, ptr %6, align 8, !tbaa !12
  store ptr getelementptr inbounds nuw inrange(-16, 32) (i8, ptr @_ZTVN7datalog12mk_bit_blastE, i64 16), ptr %0, align 8, !tbaa !13
  %7 = tail call noalias noundef ptr @_ZN6memory8allocateEm(i64 noundef 1152)
  tail call void @_ZN7datalog12mk_bit_blast4implC2ERNS_7contextE(ptr noundef nonnull align 8 dereferenceable(1152) %7, ptr noundef nonnull align 8 dereferenceable(3028) %1)
  %8 = getelementptr inbounds nuw i8, ptr %0, i64 24
  store ptr %7, ptr %8, align 8, !tbaa !15
  ret void
}